; Function Attrs: mustprogress nofree norecurse nosync nounwind willreturn memory(read, inaccessiblemem: none) uwtable
define hidden noundef nonnull ptr @_ZNK19Bytecode_member_ref19resolved_indy_entryEv(ptr nocapture noundef nonnull readonly align 8 dereferenceable(24) %0) local_unnamed_addr #0 align 2 {
  %2 = getelementptr inbounds i8, ptr %0, i64 8
  %3 = load i32, ptr %2, align 8
  %4 = icmp eq i32 %3, 186
  %5 = load ptr, ptr %0, align 8
  %6 = getelementptr inbounds i8, ptr %5, i64 1
  br i1 %4, label %7, label %8

7:                                                ; preds = %1
  %.0.i.i.i.i = load i32, ptr %6, align 1
  br label %_ZNK19Bytecode_member_ref5indexEv.exit

8:                                                ; preds = %1
  %9 = sext i32 %3 to i64
  %10 = getelementptr inbounds [512 x i16], ptr @_ZN9Bytecodes6_flagsE, i64 0, i64 %9
  %11 = load i16, ptr %10, align 2
  %12 = and i16 %11, 128
  %.not.i.i = icmp eq i16 %12, 0
  %.0.i.i.i.i.i = load i16, ptr %6, align 1
  %13 = tail call i16 @llvm.bswap.i16(i16 %.0.i.i.i.i.i)
  %.0.i.i = select i1 %.not.i.i, i16 %13, i16 %.0.i.i.i.i.i
  %14 = zext i16 %.0.i.i to i32
  br label %_ZNK19Bytecode_member_ref5indexEv.exit

_ZNK19Bytecode_member_ref5indexEv.exit:           ; preds = %7, %8
  %.0.i = phi i32 [ %.0.i.i.i.i, %7 ], [ %14, %8 ]
  %15 = getelementptr inbounds i8, ptr %0, i64 16
  %16 = load ptr, ptr %15, align 8
  %17 = getelementptr inbounds i8, ptr %16, i64 8
  %18 = load ptr, ptr %17, align 8
  %19 = getelementptr inbounds i8, ptr %18, i64 8
  %20 = load ptr, ptr %19, align 8
  %21 = getelementptr inbounds i8, ptr %20, i64 16
  %22 = load ptr, ptr %21, align 8
  %23 = getelementptr inbounds i8, ptr %22, i64 40
  %24 = load ptr, ptr %23, align 8
  %25 = getelementptr inbounds i8, ptr %24, i64 8
  %26 = sext i32 %.0.i to i64
  %27 = getelementptr inbounds %class.ResolvedIndyEntry, ptr %25, i64 %26
  ret ptr %27
}